; ModuleID = '22/761.c'
source_filename = "22/761.c"
target datalayout = "e-m:e-p270:32:32-p271:32:32-p272:64:64-i64:64-f80:128-n8:16:32:64-S128"
target triple = "x86_64-pc-linux-gnu"

@.str = private unnamed_addr constant [3 x i8] c"%d\00", align 1
@.str.1 = private unnamed_addr constant [4 x i8] c"No\0A\00", align 1
@.str.2 = private unnamed_addr constant [4 x i8] c"%d\0A\00", align 1

; Function Attrs: noinline nounwind uwtable
define dso_local i32 @main() #0 {
  %1 = alloca i32, align 4
  %2 = alloca [400 x i32], align 16
  %3 = alloca [500 x i8], align 16
  %4 = alloca i32, align 4
  %5 = alloca i32, align 4
  %6 = alloca i32, align 4
  store i32 0, i32* %1, align 4
  %7 = bitcast [400 x i32]* %2 to i8*
  call void @llvm.memset.p0i8.i64(i8* align 16 %7, i8 0, i64 1600, i1 false)
  store i32 1, i32* %4, align 4
  br label %8

8:                                                ; preds = %20, %0
  %9 = load i32, i32* %4, align 4
  %10 = icmp sle i32 %9, 310
  br i1 %10, label %11, label %23

11:                                               ; preds = %8
  %12 = load i32, i32* %4, align 4
  %13 = sext i32 %12 to i64
  %14 = getelementptr inbounds [400 x i32], [400 x i32]* %2, i64 0, i64 %13
  %15 = call i32 (i8*, ...) @__isoc99_scanf(i8* getelementptr inbounds ([3 x i8], [3 x i8]* @.str, i64 0, i64 0), i32* %14)
  %16 = call i32 @getchar()
  %17 = icmp eq i32 %16, 10
  br i1 %17, label %18, label %19

18:                                               ; preds = %11
  br label %23

19:                                               ; preds = %11
  br label %20

20:                                               ; preds = %19
  %21 = load i32, i32* %4, align 4
  %22 = add nsw i32 %21, 1
  store i32 %22, i32* %4, align 4
  br label %8

23:                                               ; preds = %18, %8
  store i32 1, i32* %4, align 4
  br label %24

24:                                               ; preds = %65, %23
  %25 = load i32, i32* %4, align 4
  %26 = icmp sle i32 %25, 300
  br i1 %26, label %27, label %68

27:                                               ; preds = %24
  store i32 1, i32* %5, align 4
  br label %28

28:                                               ; preds = %61, %27
  %29 = load i32, i32* %5, align 4
  %30 = icmp sle i32 %29, 300
  br i1 %30, label %31, label %64

31:                                               ; preds = %28
  %32 = load i32, i32* %5, align 4
  %33 = sext i32 %32 to i64
  %34 = getelementptr inbounds [400 x i32], [400 x i32]* %2, i64 0, i64 %33
  %35 = load i32, i32* %34, align 4
  %36 = load i32, i32* %5, align 4
  %37 = add nsw i32 %36, 1
  %38 = sext i32 %37 to i64
  %39 = getelementptr inbounds [400 x i32], [400 x i32]* %2, i64 0, i64 %38
  %40 = load i32, i32* %39, align 4
  %41 = icmp ult i32 %35, %40
  br i1 %41, label %42, label %60

42:                                               ; preds = %31
  %43 = load i32, i32* %5, align 4
  %44 = sext i32 %43 to i64
  %45 = getelementptr inbounds [400 x i32], [400 x i32]* %2, i64 0, i64 %44
  %46 = load i32, i32* %45, align 4
  store i32 %46, i32* %6, align 4
  %47 = load i32, i32* %5, align 4
  %48 = add nsw i32 %47, 1
  %49 = sext i32 %48 to i64
  %50 = getelementptr inbounds [400 x i32], [400 x i32]* %2, i64 0, i64 %49
  %51 = load i32, i32* %50, align 4
  %52 = load i32, i32* %5, align 4
  %53 = sext i32 %52 to i64
  %54 = getelementptr inbounds [400 x i32], [400 x i32]* %2, i64 0, i64 %53
  store i32 %51, i32* %54, align 4
  %55 = load i32, i32* %6, align 4
  %56 = load i32, i32* %5, align 4
  %57 = add nsw i32 %56, 1
  %58 = sext i32 %57 to i64
  %59 = getelementptr inbounds [400 x i32], [400 x i32]* %2, i64 0, i64 %58
  store i32 %55, i32* %59, align 4
  br label %60

60:                                               ; preds = %42, %31
  br label %61

61:                                               ; preds = %60
  %62 = load i32, i32* %5, align 4
  %63 = add nsw i32 %62, 1
  store i32 %63, i32* %5, align 4
  br label %28

64:                                               ; preds = %28
  br label %65

65:                                               ; preds = %64
  %66 = load i32, i32* %4, align 4
  %67 = add nsw i32 %66, 1
  store i32 %67, i32* %4, align 4
  br label %24

68:                                               ; preds = %24
  store i32 1, i32* %4, align 4
  br label %69

69:                                               ; preds = %122, %68
  %70 = load i32, i32* %4, align 4
  %71 = icmp sle i32 %70, 300
  br i1 %71, label %72, label %125

72:                                               ; preds = %69
  %73 = load i32, i32* %4, align 4
  %74 = add nsw i32 %73, 1
  %75 = sext i32 %74 to i64
  %76 = getelementptr inbounds [400 x i32], [400 x i32]* %2, i64 0, i64 %75
  %77 = load i32, i32* %76, align 4
  %78 = icmp eq i32 %77, 0
  br i1 %78, label %79, label %81

79:                                               ; preds = %72
  %80 = call i32 (i8*, ...) @printf(i8* getelementptr inbounds ([4 x i8], [4 x i8]* @.str.1, i64 0, i64 0))
  br label %81

81:                                               ; preds = %79, %72
  %82 = load i32, i32* %4, align 4
  %83 = add nsw i32 %82, 1
  %84 = sext i32 %83 to i64
  %85 = getelementptr inbounds [400 x i32], [400 x i32]* %2, i64 0, i64 %84
  %86 = load i32, i32* %85, align 4
  %87 = icmp eq i32 %86, 0
  br i1 %87, label %88, label %89

88:                                               ; preds = %81
  br label %125

89:                                               ; preds = %81
  %90 = load i32, i32* %4, align 4
  %91 = sext i32 %90 to i64
  %92 = getelementptr inbounds [400 x i32], [400 x i32]* %2, i64 0, i64 %91
  %93 = load i32, i32* %92, align 4
  %94 = load i32, i32* %4, align 4
  %95 = add nsw i32 %94, 1
  %96 = sext i32 %95 to i64
  %97 = getelementptr inbounds [400 x i32], [400 x i32]* %2, i64 0, i64 %96
  %98 = load i32, i32* %97, align 4
  %99 = sub i32 %93, %98
  %100 = icmp ne i32 %99, 0
  br i1 %100, label %101, label %108

101:                                              ; preds = %89
  %102 = load i32, i32* %4, align 4
  %103 = add nsw i32 %102, 1
  %104 = sext i32 %103 to i64
  %105 = getelementptr inbounds [400 x i32], [400 x i32]* %2, i64 0, i64 %104
  %106 = load i32, i32* %105, align 4
  %107 = call i32 (i8*, ...) @printf(i8* getelementptr inbounds ([4 x i8], [4 x i8]* @.str.2, i64 0, i64 0), i32 %106)
  br label %108

108:                                              ; preds = %101, %89
  %109 = load i32, i32* %4, align 4
  %110 = sext i32 %109 to i64
  %111 = getelementptr inbounds [400 x i32], [400 x i32]* %2, i64 0, i64 %110
  %112 = load i32, i32* %111, align 4
  %113 = load i32, i32* %4, align 4
  %114 = add nsw i32 %113, 1
  %115 = sext i32 %114 to i64
  %116 = getelementptr inbounds [400 x i32], [400 x i32]* %2, i64 0, i64 %115
  %117 = load i32, i32* %116, align 4
  %118 = sub i32 %112, %117
  %119 = icmp ne i32 %118, 0
  br i1 %119, label %120, label %121

120:                                              ; preds = %108
  br label %125

121:                                              ; preds = %108
  br label %122

122:                                              ; preds = %121
  %123 = load i32, i32* %4, align 4
  %124 = add nsw i32 %123, 1
  store i32 %124, i32* %4, align 4
  br label %69

125:                                              ; preds = %120, %88, %69
  %126 = load i32, i32* %4, align 4
  %127 = icmp eq i32 %126, 300
  br i1 %127, label %128, label %130

128:                                              ; preds = %125
  %129 = call i32 (i8*, ...) @printf(i8* getelementptr inbounds ([4 x i8], [4 x i8]* @.str.1, i64 0, i64 0))
  br label %130

130:                                              ; preds = %128, %125
  ret i32 0
}

; Function Attrs: argmemonly nounwind willreturn
declare void @llvm.memset.p0i8.i64(i8* nocapture writeonly, i8, i64, i1 immarg) #1

declare dso_local i32 @__isoc99_scanf(i8*, ...) #2

declare dso_local i32 @getchar() #2

declare dso_local i32 @printf(i8*, ...) #2


!llvm.module.flags = !{!0}
!llvm.ident = !{!1}

!0 = !{i32 1, !"wchar_size", i32 4}
!1 = !{!"clang version 10.0.0-4ubuntu1 "}
